; Function Attrs: nounwind sspstrong uwtable
define internal i64 @enumerator_allocate(i64 noundef %0) #0 {
  %2 = tail call i64 @rb_data_typed_object_zalloc(i64 noundef %0, i64 noundef 96, ptr noundef nonnull @enumerator_data_type) #18
  %3 = inttoptr i64 %2 to ptr
  %4 = getelementptr inbounds nuw i8, ptr %3, i64 24
  %5 = load i64, ptr %4, align 8, !tbaa !11
  %6 = and i64 %5, 2
  %.not.i = icmp eq i64 %6, 0
  %7 = getelementptr i8, ptr %3, i64 32
  br i1 %.not.i, label %8, label %RTYPEDDATA_GET_DATA.exit

8:                                                ; preds = %1
  %9 = load ptr, ptr %7, align 8, !tbaa !16
  br label %RTYPEDDATA_GET_DATA.exit

RTYPEDDATA_GET_DATA.exit:                         ; preds = %1, %8
  %10 = phi ptr [ %9, %8 ], [ %7, %1 ]
  store i64 36, ptr %10, align 8, !tbaa !17
  ret i64 %2
}